; ModuleID = 'source-C-CXX/56/2840.c'
source_filename = "source-C-CXX/56/2840.c"
target datalayout = "e-m:e-p270:32:32-p271:32:32-p272:64:64-i64:64-f80:128-n8:16:32:64-S128"
target triple = "x86_64-pc-linux-gnu"

@.str = private unnamed_addr constant [3 x i8] c"%d\00", align 1
@.str.1 = private unnamed_addr constant [3 x i8] c"%s\00", align 1

; Function Attrs: nofree nounwind sspstrong uwtable
define dso_local i32 @main() local_unnamed_addr #0 {
  %1 = alloca i32, align 4
  %2 = alloca [100 x [1000 x i8]], align 16
  %3 = bitcast i32* %1 to i8*
  call void @llvm.lifetime.start.p0i8(i64 4, i8* nonnull %3) #7
  %4 = call i32 (i8*, ...) @__isoc99_scanf(i8* getelementptr inbounds ([3 x i8], [3 x i8]* @.str, i64 0, i64 0), i32* nonnull %1)
  %5 = getelementptr inbounds [100 x [1000 x i8]], [100 x [1000 x i8]]* %2, i64 0, i64 0, i64 0
  call void @llvm.lifetime.start.p0i8(i64 100000, i8* nonnull %5) #7
  call void @llvm.memset.p0i8.i64(i8* noundef nonnull align 16 dereferenceable(100000) %5, i8 0, i64 100000, i1 false)
  %6 = load i32, i32* %1, align 4, !tbaa !5
  %7 = icmp sgt i32 %6, 0
  br i1 %7, label %8, label %54

8:                                                ; preds = %0, %48
  %9 = phi i64 [ %50, %48 ], [ 0, %0 ]
  %10 = getelementptr inbounds [100 x [1000 x i8]], [100 x [1000 x i8]]* %2, i64 0, i64 %9, i64 0
  %11 = call i32 (i8*, ...) @__isoc99_scanf(i8* getelementptr inbounds ([3 x i8], [3 x i8]* @.str.1, i64 0, i64 0), i8* nonnull %10)
  %12 = call i64 @strlen(i8* noundef nonnull %10) #8
  %13 = trunc i64 %12 to i32
  %14 = shl i64 %12, 32
  %15 = add i64 %14, -4294967296
  %16 = ashr exact i64 %15, 32
  %17 = getelementptr inbounds [100 x [1000 x i8]], [100 x [1000 x i8]]* %2, i64 0, i64 %9, i64 %16
  %18 = load i8, i8* %17, align 1, !tbaa !9
  %19 = icmp eq i8 %18, 103
  br i1 %19, label %27, label %20

20:                                               ; preds = %8
  %21 = icmp sgt i32 %13, 2
  br i1 %21, label %22, label %48

22:                                               ; preds = %20
  %23 = shl i64 %12, 32
  %24 = add i64 %23, -8589934592
  %25 = ashr exact i64 %24, 32
  %26 = call i64 @llvm.smax.i64(i64 %25, i64 1)
  br label %40

27:                                               ; preds = %8
  %28 = icmp sgt i32 %13, 3
  br i1 %28, label %29, label %48

29:                                               ; preds = %27
  %30 = add i64 %12, 4294967293
  %31 = and i64 %30, 4294967295
  br label %32

32:                                               ; preds = %29, %32
  %33 = phi i64 [ 0, %29 ], [ %38, %32 ]
  %34 = getelementptr inbounds [100 x [1000 x i8]], [100 x [1000 x i8]]* %2, i64 0, i64 %9, i64 %33
  %35 = load i8, i8* %34, align 1, !tbaa !9
  %36 = sext i8 %35 to i32
  %37 = call i32 @putchar(i32 %36)
  %38 = add nuw nsw i64 %33, 1
  %39 = icmp eq i64 %38, %31
  br i1 %39, label %48, label %32, !llvm.loop !10

40:                                               ; preds = %22, %40
  %41 = phi i64 [ 0, %22 ], [ %46, %40 ]
  %42 = getelementptr inbounds [100 x [1000 x i8]], [100 x [1000 x i8]]* %2, i64 0, i64 %9, i64 %41
  %43 = load i8, i8* %42, align 1, !tbaa !9
  %44 = sext i8 %43 to i32
  %45 = call i32 @putchar(i32 %44)
  %46 = add nuw nsw i64 %41, 1
  %47 = icmp eq i64 %46, %26
  br i1 %47, label %48, label %40, !llvm.loop !12

48:                                               ; preds = %40, %32, %20, %27
  %49 = call i32 @putchar(i32 10)
  %50 = add nuw nsw i64 %9, 1
  %51 = load i32, i32* %1, align 4, !tbaa !5
  %52 = sext i32 %51 to i64
  %53 = icmp slt i64 %50, %52
  br i1 %53, label %8, label %54, !llvm.loop !13

54:                                               ; preds = %48, %0
  call void @llvm.lifetime.end.p0i8(i64 100000, i8* nonnull %5) #7
  call void @llvm.lifetime.end.p0i8(i64 4, i8* nonnull %3) #7
  ret i32 0
}

; Function Attrs: argmemonly mustprogress nofree nosync nounwind willreturn
declare void @llvm.lifetime.start.p0i8(i64 immarg, i8* nocapture) #1

; Function Attrs: nofree nounwind
declare noundef i32 @__isoc99_scanf(i8* nocapture noundef readonly, ...) local_unnamed_addr #2

; Function Attrs: argmemonly mustprogress nofree nounwind willreturn writeonly
declare void @llvm.memset.p0i8.i64(i8* nocapture writeonly, i8, i64, i1 immarg) #3

; Function Attrs: argmemonly mustprogress nofree nounwind readonly willreturn
declare i64 @strlen(i8* nocapture) local_unnamed_addr #4

; Function Attrs: argmemonly mustprogress nofree nosync nounwind willreturn
declare void @llvm.lifetime.end.p0i8(i64 immarg, i8* nocapture) #1

; Function Attrs: nofree nounwind
declare noundef i32 @putchar(i32 noundef) local_unnamed_addr #5

; Function Attrs: nofree nosync nounwind readnone speculatable willreturn
declare i64 @llvm.smax.i64(i64, i64) #6


!llvm.module.flags = !{!0, !1, !2, !3}
!llvm.ident = !{!4}

!0 = !{i32 1, !"wchar_size", i32 4}
!1 = !{i32 7, !"PIC Level", i32 2}
!2 = !{i32 7, !"PIE Level", i32 2}
!3 = !{i32 7, !"uwtable", i32 1}
!4 = !{!"clang version 13.0.0"}
!5 = !{!6, !6, i64 0}
!6 = !{!"int", !7, i64 0}
!7 = !{!"omnipotent char", !8, i64 0}
!8 = !{!"Simple C/C++ TBAA"}
!9 = !{!7, !7, i64 0}
!10 = distinct !{!10, !11}
!11 = !{!"llvm.loop.mustprogress"}
!12 = distinct !{!12, !11}
!13 = distinct !{!13, !11}
